; Function Attrs: mustprogress uwtable
define void @_ZN6icu_776number4impl17blueprint_helpers19generateScaleOptionEiPKNS1_6DecNumERNS_13UnicodeStringER10UErrorCode(i32 noundef %0, ptr noundef %1, ptr noundef nonnull align 8 dereferenceable(64) %2, ptr noundef nonnull align 4 dereferenceable(4) %3) local_unnamed_addr #1 personality ptr @__gxx_personality_v0 {
  %5 = alloca %"class.icu_77::number::impl::DecimalQuantity", align 8
  %6 = alloca %"class.icu_77::UnicodeString", align 8
  call void @llvm.lifetime.start.p0(i64 72, ptr nonnull %5) #18
  call void @_ZN6icu_776number4impl15DecimalQuantityC1Ev(ptr noundef nonnull align 8 dereferenceable(66) %5)
  %.not = icmp eq ptr %1, null
  br i1 %.not, label %14, label %7

7:                                                ; preds = %4
  %8 = invoke noundef nonnull align 8 dereferenceable(66) ptr @_ZN6icu_776number4impl15DecimalQuantity11setToDecNumERKNS1_6DecNumER10UErrorCode(ptr noundef nonnull align 8 dereferenceable(66) %5, ptr noundef nonnull align 8 dereferenceable(92) %1, ptr noundef nonnull align 4 dereferenceable(4) %3)
          to label %9 unwind label %12

9:                                                ; preds = %7
  %10 = load i32, ptr %3, align 4, !tbaa !13
  %11 = icmp slt i32 %10, 1
  br i1 %11, label %16, label %30

12:                                               ; preds = %18, %16, %14, %7
  %13 = landingpad { ptr, i32 }
          cleanup
  br label %36

14:                                               ; preds = %4
  %15 = invoke noundef nonnull align 8 dereferenceable(66) ptr @_ZN6icu_776number4impl15DecimalQuantity8setToIntEi(ptr noundef nonnull align 8 dereferenceable(66) %5, i32 noundef 1)
          to label %16 unwind label %12

16:                                               ; preds = %14, %9
  %17 = invoke noundef zeroext i1 @_ZN6icu_776number4impl15DecimalQuantity15adjustMagnitudeEi(ptr noundef nonnull align 8 dereferenceable(66) %5, i32 noundef %0)
          to label %18 unwind label %12

18:                                               ; preds = %16
  invoke void @_ZN6icu_776number4impl15DecimalQuantity15roundToInfinityEv(ptr noundef nonnull align 8 dereferenceable(66) %5)
          to label %19 unwind label %12

19:                                               ; preds = %18
  call void @llvm.lifetime.start.p0(i64 64, ptr nonnull %6) #18
  invoke void @_ZNK6icu_776number4impl15DecimalQuantity13toPlainStringEv(ptr dead_on_unwind nonnull writable sret(%"class.icu_77::UnicodeString") align 8 %6, ptr noundef nonnull align 8 dereferenceable(66) %5)
          to label %20 unwind label %31

20:                                               ; preds = %19
  %21 = getelementptr inbounds nuw i8, ptr %6, i64 8
  %22 = load i16, ptr %21, align 8, !tbaa !25
  %23 = icmp slt i16 %22, 0
  %24 = ashr i16 %22, 5
  %25 = sext i16 %24 to i32
  %26 = getelementptr inbounds nuw i8, ptr %6, i64 12
  %27 = load i32, ptr %26, align 4
  %28 = select i1 %23, i32 %27, i32 %25
  %29 = invoke noundef nonnull align 8 dereferenceable(64) ptr @_ZN6icu_7713UnicodeString8doAppendERKS0_ii(ptr noundef nonnull align 8 dereferenceable(64) %2, ptr noundef nonnull align 8 dereferenceable(64) %6, i32 noundef 0, i32 noundef %28)
          to label %_ZN6icu_7713UnicodeString6appendERKS0_.exit unwind label %33

_ZN6icu_7713UnicodeString6appendERKS0_.exit:      ; preds = %20
  call void @_ZN6icu_7713UnicodeStringD1Ev(ptr noundef nonnull align 8 dereferenceable(64) %6) #18
  call void @llvm.lifetime.end.p0(i64 64, ptr nonnull %6) #18
  br label %30

30:                                               ; preds = %9, %_ZN6icu_7713UnicodeString6appendERKS0_.exit
  call void @_ZN6icu_776number4impl15DecimalQuantityD1Ev(ptr noundef nonnull align 8 dereferenceable(66) %5) #18
  call void @llvm.lifetime.end.p0(i64 72, ptr nonnull %5) #18
  ret void

31:                                               ; preds = %19
  %32 = landingpad { ptr, i32 }
          cleanup
  br label %35

33:                                               ; preds = %20
  %34 = landingpad { ptr, i32 }
          cleanup
  call void @_ZN6icu_7713UnicodeStringD1Ev(ptr noundef nonnull align 8 dereferenceable(64) %6) #18
  br label %35

35:                                               ; preds = %33, %31
  %.pn = phi { ptr, i32 } [ %34, %33 ], [ %32, %31 ]
  call void @llvm.lifetime.end.p0(i64 64, ptr nonnull %6) #18
  br label %36

36:                                               ; preds = %35, %12
  %.pn.pn = phi { ptr, i32 } [ %.pn, %35 ], [ %13, %12 ]
  call void @_ZN6icu_776number4impl15DecimalQuantityD1Ev(ptr noundef nonnull align 8 dereferenceable(66) %5) #18
  call void @llvm.lifetime.end.p0(i64 72, ptr nonnull %5) #18
  resume { ptr, i32 } %.pn.pn
}